target datalayout = "e-m:e-p270:32:32-p271:32:32-p272:64:64-i64:64-i128:128-f80:128-n8:16:32:64-S128"
target triple = "x86_64-pc-linux-gnu"

%struct.Ppoly_t = type { ptr, i64 }
%struct.vconfig_s = type { i32, i32, ptr, ptr, ptr, ptr, ptr }
%struct.Pxy_t = type { double, double }

@stderr = external global ptr, align 8
@.str = private unnamed_addr constant [58 x i8] c"integer overflow when trying to allocate %zu * %zu bytes\0A\00", align 1
@.str.1 = private unnamed_addr constant [49 x i8] c"out of memory when trying to allocate %zu bytes\0A\00", align 1

; Function Attrs: inlinehint nounwind uwtable
define internal ptr @gv_calloc(i64 noundef %0, i64 noundef %1) #7 {
  %3 = alloca i64, align 8
  %4 = alloca i64, align 8
  %5 = alloca ptr, align 8
  store i64 %0, ptr %3, align 8, !tbaa !12
  store i64 %1, ptr %4, align 8, !tbaa !12
  %6 = load i64, ptr %3, align 8, !tbaa !12
  %7 = icmp ugt i64 %6, 0
  br i1 %7, label %8, label %18

8:                                                ; preds = %2
  %9 = load i64, ptr %3, align 8, !tbaa !12
  %10 = udiv i64 -1, %9
  %11 = load i64, ptr %4, align 8, !tbaa !12
  %12 = icmp ult i64 %10, %11
  br i1 %12, label %13, label %18

13:                                               ; preds = %8
  %14 = load ptr, ptr @stderr, align 8, !tbaa !43
  %15 = load i64, ptr %3, align 8, !tbaa !12
  %16 = load i64, ptr %4, align 8, !tbaa !12
  %17 = call i32 (ptr, ptr, ...) @fprintf(ptr noundef %14, ptr noundef @.str, i64 noundef %15, i64 noundef %16) #10
  call void @graphviz_exit(i32 noundef 1) #13
  unreachable

18:                                               ; preds = %8, %2
  call void @llvm.lifetime.start.p0(i64 8, ptr %5) #10
  %19 = load i64, ptr %3, align 8, !tbaa !12
  %20 = load i64, ptr %4, align 8, !tbaa !12
  %21 = call noalias ptr @calloc(i64 noundef %19, i64 noundef %20) #12
  store ptr %21, ptr %5, align 8, !tbaa !45
  %22 = load i64, ptr %3, align 8, !tbaa !12
  %23 = icmp ugt i64 %22, 0
  br i1 %23, label %24, label %36

24:                                               ; preds = %18
  %25 = load i64, ptr %4, align 8, !tbaa !12
  %26 = icmp ugt i64 %25, 0
  br i1 %26, label %27, label %36

27:                                               ; preds = %24
  %28 = load ptr, ptr %5, align 8, !tbaa !45
  %29 = icmp eq ptr %28, null
  br i1 %29, label %30, label %36

30:                                               ; preds = %27
  %31 = load ptr, ptr @stderr, align 8, !tbaa !43
  %32 = load i64, ptr %3, align 8, !tbaa !12
  %33 = load i64, ptr %4, align 8, !tbaa !12
  %34 = mul i64 %32, %33
  %35 = call i32 (ptr, ptr, ...) @fprintf(ptr noundef %31, ptr noundef @.str.1, i64 noundef %34) #10
  call void @graphviz_exit(i32 noundef 1) #13
  unreachable

36:                                               ; preds = %27, %24, %18
  %37 = load ptr, ptr %5, align 8, !tbaa !45
  call void @llvm.lifetime.end.p0(i64 8, ptr %5) #10
  ret ptr %37
}

; Function Attrs: nounwind uwtable
define void @Pobspath(ptr noundef %0, double %1, double %2, i32 noundef %3, double %4, double %5, i32 noundef %6, ptr noundef %7) #0 {
  %9 = alloca %struct.Pxy_t, align 8
  %10 = alloca %struct.Pxy_t, align 8
  %11 = alloca ptr, align 8
  %12 = alloca i32, align 4
  %13 = alloca i32, align 4
  %14 = alloca ptr, align 8
  %15 = alloca i32, align 4
  %16 = alloca ptr, align 8
  %17 = alloca i64, align 8
  %18 = alloca ptr, align 8
  %19 = alloca ptr, align 8
  %20 = alloca ptr, align 8
  %21 = alloca i64, align 8
  %22 = getelementptr inbounds nuw { double, double }, ptr %9, i32 0, i32 0
  store double %1, ptr %22, align 8
  %23 = getelementptr inbounds nuw { double, double }, ptr %9, i32 0, i32 1
  store double %2, ptr %23, align 8
  %24 = getelementptr inbounds nuw { double, double }, ptr %10, i32 0, i32 0
  store double %4, ptr %24, align 8
  %25 = getelementptr inbounds nuw { double, double }, ptr %10, i32 0, i32 1
  store double %5, ptr %25, align 8
  store ptr %0, ptr %11, align 8, !tbaa !10
  store i32 %3, ptr %12, align 4, !tbaa !8
  store i32 %6, ptr %13, align 4, !tbaa !8
  store ptr %7, ptr %14, align 8, !tbaa !14
  call void @llvm.lifetime.start.p0(i64 4, ptr %15) #10
  call void @llvm.lifetime.start.p0(i64 8, ptr %16) #10
  call void @llvm.lifetime.start.p0(i64 8, ptr %17) #10
  call void @llvm.lifetime.start.p0(i64 8, ptr %18) #10
  call void @llvm.lifetime.start.p0(i64 8, ptr %19) #10
  call void @llvm.lifetime.start.p0(i64 8, ptr %20) #10
  %26 = load ptr, ptr %11, align 8, !tbaa !10
  %27 = load i32, ptr %12, align 4, !tbaa !8
  %28 = getelementptr inbounds nuw { double, double }, ptr %9, i32 0, i32 0
  %29 = load double, ptr %28, align 8
  %30 = getelementptr inbounds nuw { double, double }, ptr %9, i32 0, i32 1
  %31 = load double, ptr %30, align 8
  %32 = call ptr @ptVis(ptr noundef %26, i32 noundef %27, double %29, double %31)
  store ptr %32, ptr %19, align 8, !tbaa !37
  %33 = load ptr, ptr %11, align 8, !tbaa !10
  %34 = load i32, ptr %13, align 4, !tbaa !8
  %35 = getelementptr inbounds nuw { double, double }, ptr %10, i32 0, i32 0
  %36 = load double, ptr %35, align 8
  %37 = getelementptr inbounds nuw { double, double }, ptr %10, i32 0, i32 1
  %38 = load double, ptr %37, align 8
  %39 = call ptr @ptVis(ptr noundef %33, i32 noundef %34, double %36, double %38)
  store ptr %39, ptr %20, align 8, !tbaa !37
  %40 = load i32, ptr %12, align 4, !tbaa !8
  %41 = load ptr, ptr %19, align 8, !tbaa !37
  %42 = load i32, ptr %13, align 4, !tbaa !8
  %43 = load ptr, ptr %20, align 8, !tbaa !37
  %44 = load ptr, ptr %11, align 8, !tbaa !10
  %45 = getelementptr inbounds nuw { double, double }, ptr %9, i32 0, i32 0
  %46 = load double, ptr %45, align 8
  %47 = getelementptr inbounds nuw { double, double }, ptr %9, i32 0, i32 1
  %48 = load double, ptr %47, align 8
  %49 = getelementptr inbounds nuw { double, double }, ptr %10, i32 0, i32 0
  %50 = load double, ptr %49, align 8
  %51 = getelementptr inbounds nuw { double, double }, ptr %10, i32 0, i32 1
  %52 = load double, ptr %51, align 8
  %53 = call ptr @makePath(double %46, double %48, i32 noundef %40, ptr noundef %41, double %50, double %52, i32 noundef %42, ptr noundef %43, ptr noundef %44)
  store ptr %53, ptr %16, align 8, !tbaa !39
  store i64 1, ptr %17, align 8, !tbaa !12
  %54 = load ptr, ptr %16, align 8, !tbaa !39
  %55 = load ptr, ptr %11, align 8, !tbaa !10
  %56 = getelementptr inbounds nuw %struct.vconfig_s, ptr %55, i32 0, i32 1
  %57 = load i32, ptr %56, align 4, !tbaa !28
  %58 = sext i32 %57 to i64
  %59 = getelementptr inbounds i32, ptr %54, i64 %58
  %60 = load i32, ptr %59, align 4, !tbaa !8
  store i32 %60, ptr %15, align 4, !tbaa !8
  br label %61

61:                                               ; preds = %71, %8
  %62 = load i32, ptr %15, align 4, !tbaa !8
  %63 = load ptr, ptr %11, align 8, !tbaa !10
  %64 = getelementptr inbounds nuw %struct.vconfig_s, ptr %63, i32 0, i32 1
  %65 = load i32, ptr %64, align 4, !tbaa !28
  %66 = add nsw i32 %65, 1
  %67 = icmp ne i32 %62, %66
  br i1 %67, label %68, label %77

68:                                               ; preds = %61
  %69 = load i64, ptr %17, align 8, !tbaa !12
  %70 = add i64 %69, 1
  store i64 %70, ptr %17, align 8, !tbaa !12
  br label %71

71:                                               ; preds = %68
  %72 = load ptr, ptr %16, align 8, !tbaa !39
  %73 = load i32, ptr %15, align 4, !tbaa !8
  %74 = sext i32 %73 to i64
  %75 = getelementptr inbounds i32, ptr %72, i64 %74
  %76 = load i32, ptr %75, align 4, !tbaa !8
  store i32 %76, ptr %15, align 4, !tbaa !8
  br label %61, !llvm.loop !40

77:                                               ; preds = %61
  %78 = load i64, ptr %17, align 8, !tbaa !12
  %79 = add i64 %78, 1
  store i64 %79, ptr %17, align 8, !tbaa !12
  %80 = load i64, ptr %17, align 8, !tbaa !12
  %81 = call ptr @gv_calloc(i64 noundef %80, i64 noundef 16)
  store ptr %81, ptr %18, align 8, !tbaa !41
  call void @llvm.lifetime.start.p0(i64 8, ptr %21) #10
  %82 = load i64, ptr %17, align 8, !tbaa !12
  %83 = sub i64 %82, 1
  store i64 %83, ptr %21, align 8, !tbaa !12
  %84 = load ptr, ptr %18, align 8, !tbaa !41
  %85 = load i64, ptr %21, align 8, !tbaa !12
  %86 = add i64 %85, -1
  store i64 %86, ptr %21, align 8, !tbaa !12
  %87 = getelementptr inbounds nuw %struct.Pxy_t, ptr %84, i64 %85
  call void @llvm.memcpy.p0.p0.i64(ptr align 8 %87, ptr align 8 %10, i64 16, i1 false), !tbaa.struct !31
  %88 = load ptr, ptr %16, align 8, !tbaa !39
  %89 = load ptr, ptr %11, align 8, !tbaa !10
  %90 = getelementptr inbounds nuw %struct.vconfig_s, ptr %89, i32 0, i32 1
  %91 = load i32, ptr %90, align 4, !tbaa !28
  %92 = sext i32 %91 to i64
  %93 = getelementptr inbounds i32, ptr %88, i64 %92
  %94 = load i32, ptr %93, align 4, !tbaa !8
  store i32 %94, ptr %15, align 4, !tbaa !8
  br label %95

95:                                               ; preds = %113, %77
  %96 = load i32, ptr %15, align 4, !tbaa !8
  %97 = load ptr, ptr %11, align 8, !tbaa !10
  %98 = getelementptr inbounds nuw %struct.vconfig_s, ptr %97, i32 0, i32 1
  %99 = load i32, ptr %98, align 4, !tbaa !28
  %100 = add nsw i32 %99, 1
  %101 = icmp ne i32 %96, %100
  br i1 %101, label %102, label %119

102:                                              ; preds = %95
  %103 = load ptr, ptr %18, align 8, !tbaa !41
  %104 = load i64, ptr %21, align 8, !tbaa !12
  %105 = add i64 %104, -1
  store i64 %105, ptr %21, align 8, !tbaa !12
  %106 = getelementptr inbounds nuw %struct.Pxy_t, ptr %103, i64 %104
  %107 = load ptr, ptr %11, align 8, !tbaa !10
  %108 = getelementptr inbounds nuw %struct.vconfig_s, ptr %107, i32 0, i32 2
  %109 = load ptr, ptr %108, align 8, !tbaa !21
  %110 = load i32, ptr %15, align 4, !tbaa !8
  %111 = sext i32 %110 to i64
  %112 = getelementptr inbounds %struct.Pxy_t, ptr %109, i64 %111
  call void @llvm.memcpy.p0.p0.i64(ptr align 8 %106, ptr align 8 %112, i64 16, i1 false), !tbaa.struct !31
  br label %113

113:                                              ; preds = %102
  %114 = load ptr, ptr %16, align 8, !tbaa !39
  %115 = load i32, ptr %15, align 4, !tbaa !8
  %116 = sext i32 %115 to i64
  %117 = getelementptr inbounds i32, ptr %114, i64 %116
  %118 = load i32, ptr %117, align 4, !tbaa !8
  store i32 %118, ptr %15, align 4, !tbaa !8
  br label %95, !llvm.loop !42

119:                                              ; preds = %95
  %120 = load ptr, ptr %18, align 8, !tbaa !41
  %121 = load i64, ptr %21, align 8, !tbaa !12
  %122 = getelementptr inbounds nuw %struct.Pxy_t, ptr %120, i64 %121
  call void @llvm.memcpy.p0.p0.i64(ptr align 8 %122, ptr align 8 %9, i64 16, i1 false), !tbaa.struct !31
  %123 = load ptr, ptr %19, align 8, !tbaa !37
  call void @free(ptr noundef %123) #10
  %124 = load ptr, ptr %20, align 8, !tbaa !37
  call void @free(ptr noundef %124) #10
  %125 = load i64, ptr %17, align 8, !tbaa !12
  %126 = load ptr, ptr %14, align 8, !tbaa !14
  %127 = getelementptr inbounds nuw %struct.Ppoly_t, ptr %126, i32 0, i32 1
  store i64 %125, ptr %127, align 8, !tbaa !16
  %128 = load ptr, ptr %18, align 8, !tbaa !41
  %129 = load ptr, ptr %14, align 8, !tbaa !14
  %130 = getelementptr inbounds nuw %struct.Ppoly_t, ptr %129, i32 0, i32 0
  store ptr %128, ptr %130, align 8, !tbaa !30
  %131 = load ptr, ptr %16, align 8, !tbaa !39
  call void @free(ptr noundef %131) #10
  call void @llvm.lifetime.end.p0(i64 8, ptr %21) #10
  call void @llvm.lifetime.end.p0(i64 8, ptr %20) #10
  call void @llvm.lifetime.end.p0(i64 8, ptr %19) #10
  call void @llvm.lifetime.end.p0(i64 8, ptr %18) #10
  call void @llvm.lifetime.end.p0(i64 8, ptr %17) #10
  call void @llvm.lifetime.end.p0(i64 8, ptr %16) #10
  call void @llvm.lifetime.end.p0(i64 4, ptr %15) #10
  ret void
}