; Function Attrs: nounwind uwtable
define void @Pobspath(ptr noundef %0, double %1, double %2, i32 noundef %3, double %4, double %5, i32 noundef %6, ptr noundef writeonly captures(none) %7) local_unnamed_addr #0 {
  %9 = tail call ptr @ptVis(ptr noundef %0, i32 noundef %3, double %1, double %2) #11
  %10 = tail call ptr @ptVis(ptr noundef %0, i32 noundef %6, double %4, double %5) #11
  %11 = tail call ptr @makePath(double %1, double %2, i32 noundef %3, ptr noundef %9, double %4, double %5, i32 noundef %6, ptr noundef %10, ptr noundef %0) #11
  %12 = getelementptr inbounds nuw i8, ptr %0, i64 4
  %13 = load i32, ptr %12, align 4, !tbaa !22
  %14 = add nsw i32 %13, 1
  br label %15

15:                                               ; preds = %15, %8
  %.046 = phi i64 [ 1, %8 ], [ %16, %15 ]
  %.pn.in = phi i32 [ %13, %8 ], [ %.045, %15 ]
  %.pn = sext i32 %.pn.in to i64
  %.045.in = getelementptr inbounds i32, ptr %11, i64 %.pn
  %.045 = load i32, ptr %.045.in, align 4, !tbaa !24
  %.not = icmp eq i32 %.045, %14
  %16 = add i64 %.046, 1
  br i1 %.not, label %17, label %15, !llvm.loop !34

17:                                               ; preds = %15
  %mul.ov.i = icmp ugt i64 %16, 1152921504606846975
  br i1 %mul.ov.i, label %18, label %21

18:                                               ; preds = %17
  %19 = load ptr, ptr @stderr, align 8, !tbaa !35
  %20 = tail call i32 (ptr, ptr, ...) @fprintf(ptr noundef %19, ptr noundef nonnull @.str, i64 noundef %16, i64 noundef 16) #13
  tail call fastcc void @graphviz_exit() #14
  unreachable

21:                                               ; preds = %17
  %22 = icmp ne i64 %16, 0
  %23 = tail call noalias ptr @calloc(i64 noundef %16, i64 noundef 16) #12
  %24 = icmp eq ptr %23, null
  %or.cond3.i = and i1 %22, %24
  br i1 %or.cond3.i, label %25, label %gv_calloc.exit

25:                                               ; preds = %21
  %26 = load ptr, ptr @stderr, align 8, !tbaa !35
  %27 = shl nuw i64 %16, 4
  %28 = tail call i32 (ptr, ptr, ...) @fprintf(ptr noundef %26, ptr noundef nonnull @.str.1, i64 noundef %27) #13
  tail call fastcc void @graphviz_exit() #14
  unreachable

gv_calloc.exit:                                   ; preds = %21
  %29 = getelementptr inbounds nuw %struct.Pxy_t, ptr %23, i64 %.046
  store double %4, ptr %29, align 8, !tbaa !27
  %.sroa.4.0..sroa_idx = getelementptr inbounds nuw i8, ptr %29, i64 8
  store double %5, ptr %.sroa.4.0..sroa_idx, align 8, !tbaa !27
  %30 = sext i32 %13 to i64
  %.049 = add nsw i64 %.046, -1
  %.1.in50 = getelementptr inbounds i32, ptr %11, i64 %30
  %.151 = load i32, ptr %.1.in50, align 4, !tbaa !24
  %.not4852 = icmp eq i32 %.151, %14
  br i1 %.not4852, label %._crit_edge, label %.lr.ph

.lr.ph:                                           ; preds = %gv_calloc.exit
  %31 = getelementptr inbounds nuw i8, ptr %0, i64 8
  %32 = load ptr, ptr %31, align 8, !tbaa !14
  br label %33

33:                                               ; preds = %.lr.ph, %33
  %.154 = phi i32 [ %.151, %.lr.ph ], [ %.1, %33 ]
  %.053 = phi i64 [ %.049, %.lr.ph ], [ %.0, %33 ]
  %34 = getelementptr inbounds nuw %struct.Pxy_t, ptr %23, i64 %.053
  %35 = sext i32 %.154 to i64
  %36 = getelementptr inbounds %struct.Pxy_t, ptr %32, i64 %35
  tail call void @llvm.memcpy.p0.p0.i64(ptr noundef nonnull align 8 dereferenceable(16) %34, ptr noundef nonnull align 8 dereferenceable(16) %36, i64 16, i1 false), !tbaa.struct !26
  %.0 = add i64 %.053, -1
  %.1.in = getelementptr inbounds i32, ptr %11, i64 %35
  %.1 = load i32, ptr %.1.in, align 4, !tbaa !24
  %.not48 = icmp eq i32 %.1, %14
  br i1 %.not48, label %._crit_edge, label %33, !llvm.loop !37

._crit_edge:                                      ; preds = %33, %gv_calloc.exit
  %.0.lcssa = phi i64 [ %.049, %gv_calloc.exit ], [ %.0, %33 ]
  %37 = getelementptr inbounds nuw %struct.Pxy_t, ptr %23, i64 %.0.lcssa
  store double %1, ptr %37, align 8, !tbaa !27
  %.sroa.443.0..sroa_idx = getelementptr inbounds nuw i8, ptr %37, i64 8
  store double %2, ptr %.sroa.443.0..sroa_idx, align 8, !tbaa !27
  tail call void @free(ptr noundef %9) #11
  tail call void @free(ptr noundef %10) #11
  %38 = getelementptr inbounds nuw i8, ptr %7, i64 8
  store i64 %16, ptr %38, align 8, !tbaa !8
  store ptr %23, ptr %7, align 8, !tbaa !25
  tail call void @free(ptr noundef nonnull %11) #11
  ret void
}